target datalayout = "e-m:e-p270:32:32-p271:32:32-p272:64:64-i64:64-i128:128-f80:128-n8:16:32:64-S128"
target triple = "x86_64-unknown-linux-gnu"

; Function Attrs: nounwind uwtable
define internal i32 @tcache_destroy_ctl(ptr noundef %tsd, ptr noundef %mib, i64 noundef %miblen, ptr noundef %oldp, ptr noundef %oldlenp, ptr noundef %newp, i64 noundef %newlen) #0 {
entry:
  %tsd.addr = alloca ptr, align 8
  %mib.addr = alloca ptr, align 8
  %miblen.addr = alloca i64, align 8
  %oldp.addr = alloca ptr, align 8
  %oldlenp.addr = alloca ptr, align 8
  %newp.addr = alloca ptr, align 8
  %newlen.addr = alloca i64, align 8
  %ret = alloca i32, align 4
  %tcache_ind = alloca i32, align 4
  store ptr %tsd, ptr %tsd.addr, align 8
  store ptr %mib, ptr %mib.addr, align 8
  store i64 %miblen, ptr %miblen.addr, align 8
  store ptr %oldp, ptr %oldp.addr, align 8
  store ptr %oldlenp, ptr %oldlenp.addr, align 8
  store ptr %newp, ptr %newp.addr, align 8
  store i64 %newlen, ptr %newlen.addr, align 8
  br label %do.body

do.body:                                          ; preds = %entry
  %0 = load ptr, ptr %oldp.addr, align 8
  %cmp = icmp ne ptr %0, null
  br i1 %cmp, label %if.then, label %lor.lhs.false

lor.lhs.false:                                    ; preds = %do.body
  %1 = load ptr, ptr %oldlenp.addr, align 8
  %cmp1 = icmp ne ptr %1, null
  br i1 %cmp1, label %if.then, label %if.end

if.then:                                          ; preds = %lor.lhs.false, %do.body
  store i32 1, ptr %ret, align 4
  br label %label_return

if.end:                                           ; preds = %lor.lhs.false
  br label %do.end

do.end:                                           ; preds = %if.end
  br label %do.body2

do.body2:                                         ; preds = %do.end
  %2 = load ptr, ptr %newp.addr, align 8
  %cmp3 = icmp eq ptr %2, null
  br i1 %cmp3, label %if.then6, label %lor.lhs.false4

lor.lhs.false4:                                   ; preds = %do.body2
  %3 = load i64, ptr %newlen.addr, align 8
  %cmp5 = icmp ne i64 %3, 4
  br i1 %cmp5, label %if.then6, label %if.end7

if.then6:                                         ; preds = %lor.lhs.false4, %do.body2
  store i32 22, ptr %ret, align 4
  br label %label_return

if.end7:                                          ; preds = %lor.lhs.false4
  %4 = load ptr, ptr %newp.addr, align 8
  %5 = load i32, ptr %4, align 4
  store i32 %5, ptr %tcache_ind, align 4
  br label %do.end8

do.end8:                                          ; preds = %if.end7
  %6 = load ptr, ptr %tsd.addr, align 8
  %7 = load i32, ptr %tcache_ind, align 4
  call void @tcaches_destroy(ptr noundef %6, i32 noundef %7)
  store i32 0, ptr %ret, align 4
  br label %label_return

label_return:                                     ; preds = %do.end8, %if.then6, %if.then
  %8 = load i32, ptr %ret, align 4
  ret i32 %8
}