; Function Attrs: nounwind uwtable
define internal noundef i32 @tcache_destroy_ctl(ptr noundef %tsd, ptr nocapture readnone %mib, i64 %miblen, ptr noundef readnone %oldp, ptr noundef readnone %oldlenp, ptr noundef readonly %newp, i64 noundef %newlen) #0 {
entry:
  %cmp = icmp ne ptr %oldp, null
  %cmp1 = icmp ne ptr %oldlenp, null
  %or.cond = or i1 %cmp, %cmp1
  br i1 %or.cond, label %label_return, label %do.body2

do.body2:                                         ; preds = %entry
  %cmp3 = icmp eq ptr %newp, null
  %cmp5 = icmp ne i64 %newlen, 4
  %or.cond1 = or i1 %cmp3, %cmp5
  br i1 %or.cond1, label %label_return, label %if.end7

if.end7:                                          ; preds = %do.body2
  %0 = load i32, ptr %newp, align 4
  tail call void @tcaches_destroy(ptr noundef %tsd, i32 noundef %0) #14
  br label %label_return

label_return:                                     ; preds = %do.body2, %entry, %if.end7
  %ret.0 = phi i32 [ 0, %if.end7 ], [ 1, %entry ], [ 22, %do.body2 ]
  ret i32 %ret.0
}